CCS PCH C Compiler, Version 4.057, 53710               03-Jan-22 14:44

               Filename: D:\PIC_PROJECT\main.lst

               ROM used: 256 bytes (1%)
                         Largest free fragment is 32508
               RAM used: 24 (2%) at main() level
                         24 (2%) worst case
               Stack:    1 worst case (0 in main + 1 for interrupts)

*
0000:  GOTO   00A4
*
0008:  MOVWF  05
000A:  MOVFF  FD8,06
000E:  MOVFF  FE0,07
0012:  MOVLB  0
0014:  MOVFF  FE9,0D
0018:  MOVFF  FEA,08
001C:  MOVFF  FE1,09
0020:  MOVFF  FE2,0A
0024:  MOVFF  FD9,0B
0028:  MOVFF  FDA,0C
002C:  MOVFF  FF3,14
0030:  MOVFF  FF4,15
0034:  MOVFF  FFA,16
0038:  MOVFF  00,0F
003C:  MOVFF  01,10
0040:  MOVFF  02,11
0044:  MOVFF  03,12
0048:  MOVFF  04,13
004C:  BTFSS  F9D.5
004E:  GOTO   0058
0052:  BTFSC  F9E.5
0054:  GOTO   009E
0058:  MOVFF  0F,00
005C:  MOVFF  10,01
0060:  MOVFF  11,02
0064:  MOVFF  12,03
0068:  MOVFF  13,04
006C:  BSF    0E.7
006E:  MOVFF  0D,FE9
0072:  MOVFF  08,FEA
0076:  MOVFF  09,FE1
007A:  MOVFF  0A,FE2
007E:  MOVFF  0B,FD9
0082:  MOVFF  0C,FDA
0086:  MOVFF  14,FF3
008A:  MOVFF  15,FF4
008E:  MOVFF  16,FFA
0092:  MOVF   05,W
0094:  MOVFF  07,FE0
0098:  MOVFF  06,FD8
009C:  RETFIE 0
.................... #include "D:\PIC_PROJECT\main.h" 
.................... #include <18F452.h> 
.................... //////// Standard Header file for the PIC18F452 device //////////////// 
.................... #device PIC18F452 
.................... #list 
....................  
.................... #device adc=10 
....................  
.................... #FUSES NOWDT                 	//No Watch Dog Timer 
.................... #FUSES WDT128                	//Watch Dog Timer uses 1:128 Postscale 
.................... #FUSES HS                    	//High speed Osc (> 4mhz) 
.................... #FUSES NOPROTECT             	//Code not protected from reading 
.................... #FUSES NOOSCSEN              	//Oscillator switching is disabled, main oscillator is source 
.................... #FUSES BROWNOUT              	//Reset when brownout detected 
.................... #FUSES BORV20                	//Brownout reset at 2.0V 
.................... #FUSES NOPUT                 	//No Power Up Timer 
.................... #FUSES STVREN                	//Stack full/underflow will cause reset 
.................... #FUSES NODEBUG               	//No Debug mode for ICD 
.................... #FUSES NOLVP                 	//No low voltage prgming, B3(PIC16) or B5(PIC18) used for I/O 
.................... #FUSES NOWRT                 	//Program memory not write protected 
.................... #FUSES NOWRTD                	//Data EEPROM not write protected 
.................... #FUSES NOWRTB                	//Boot block not write protected 
.................... #FUSES NOWRTC                	//configuration not registers write protected 
.................... #FUSES NOCPD                 	//No EE protection 
.................... #FUSES NOCPB                 	//No Boot Block code protection 
.................... #FUSES NOEBTR                	//Memory not protected from table reads 
.................... #FUSES NOEBTRB               	//Boot block not protected from table reads 
....................  
.................... #use delay(clock=20000000) 
.................... #use rs232(baud=9600,parity=N,xmit=PIN_C6,rcv=PIN_C7,bits=8) 
....................  
....................  
.................... #int_RDA 
.................... void  RDA_isr(void)  
.................... { 
....................  
.................... } 
....................  
....................  
....................  
009E:  BCF    F9E.5
00A0:  GOTO   0058
.................... void main() 
.................... { 
00A4:  CLRF   FF8
00A6:  BCF    FD0.7
00A8:  BSF    0D.7
00AA:  CLRF   FEA
00AC:  CLRF   FE9
00AE:  MOVLW  81
00B0:  MOVWF  FAF
00B2:  MOVLW  A6
00B4:  MOVWF  FAC
00B6:  MOVLW  90
00B8:  MOVWF  FAB
00BA:  BSF    FC1.0
00BC:  BSF    FC1.1
00BE:  BSF    FC1.2
00C0:  BCF    FC1.3
....................  
....................    setup_adc_ports(AN0); 
00C2:  BCF    FC1.0
00C4:  BSF    FC1.1
00C6:  BSF    FC1.2
00C8:  BSF    FC1.3
....................    setup_adc(ADC_CLOCK_DIV_64); 
00CA:  BSF    FC1.6
00CC:  BCF    FC2.6
00CE:  BSF    FC2.7
00D0:  BSF    FC1.7
00D2:  BSF    FC2.0
....................    setup_psp(PSP_DISABLED); 
00D4:  BCF    F96.4
....................    setup_spi(SPI_SS_DISABLED); 
00D6:  BCF    FC6.5
00D8:  BCF    F94.5
00DA:  BSF    F94.4
00DC:  BCF    F94.3
00DE:  MOVLW  01
00E0:  MOVWF  FC6
00E2:  MOVLW  00
00E4:  MOVWF  FC7
....................    setup_wdt(WDT_OFF); 
00E6:  BCF    FD1.0
....................    setup_timer_0(RTCC_INTERNAL); 
00E8:  MOVLW  80
00EA:  MOVWF  FD5
....................    setup_timer_1(T1_DISABLED); 
00EC:  CLRF   FCD
....................    setup_timer_2(T2_DISABLED,0,1); 
00EE:  MOVLW  00
00F0:  MOVWF  FCA
00F2:  MOVLW  00
00F4:  MOVWF  FCB
....................    setup_timer_3(T3_DISABLED|T3_DIV_BY_1); 
00F6:  MOVF   FB1,W
00F8:  ANDLW  48
00FA:  MOVWF  FB1
....................    enable_interrupts(INT_RDA); 
00FC:  BSF    F9D.5
....................    enable_interrupts(GLOBAL); 
00FE:  MOVLW  C0
0100:  IORWF  FF2,F
.................... //Setup_Oscillator parameter not selected from Intr Oscillotar Config tab 
....................  
....................    // TODO: USER CODE!! 
....................  
.................... } 
0102:  SLEEP 

Configuration Fuses:
   Word  1: 2200   HS NOOSCSEN
   Word  2: 0E0F   BROWNOUT WDT128 NOWDT BORV20 NOPUT
   Word  3: 0100   CCP2C1
   Word  4: 0081   STVREN NODEBUG NOLVP
   Word  5: C00F   NOPROTECT NOCPD NOCPB
   Word  6: E00F   NOWRT NOWRTD NOWRTB NOWRTC
   Word  7: 400F   NOEBTR NOEBTRB
