CCS PCH C Compiler, Version 4.057, 53710               22-Feb-22 10:54

               Filename: D:\PIC_PROJECT\mS.lst

               ROM used: 160 bytes (0%)
                         Largest free fragment is 32608
               RAM used: 6 (0%) at main() level
                         7 (0%) worst case
               Stack:    1 locations

*
0000:  GOTO   002A
.................... #include "D:\PIC_PROJECT\mS.h" 
.................... #include <18F452.h> 
.................... //////// Standard Header file for the PIC18F452 device //////////////// 
.................... #device PIC18F452 
.................... #list 
....................  
.................... #device adc=8 
....................  
.................... #FUSES NOWDT                 	//No Watch Dog Timer 
.................... #FUSES WDT128                	//Watch Dog Timer uses 1:128 Postscale 
.................... #FUSES HS                    	//High speed Osc (> 4mhz) 
.................... #FUSES NOPROTECT             	//Code not protected from reading 
.................... #FUSES NOOSCSEN              	//Oscillator switching is disabled, main oscillator is source 
.................... #FUSES BROWNOUT              	//Reset when brownout detected 
.................... #FUSES BORV20                	//Brownout reset at 2.0V 
.................... #FUSES NOPUT                 	//No Power Up Timer 
.................... #FUSES STVREN                	//Stack full/underflow will cause reset 
.................... #FUSES NODEBUG               	//No Debug mode for ICD 
.................... #FUSES NOLVP                 	//No low voltage prgming, B3(PIC16) or B5(PIC18) used for I/O 
.................... #FUSES NOWRT                 	//Program memory not write protected 
.................... #FUSES NOWRTD                	//Data EEPROM not write protected 
.................... #FUSES NOWRTB                	//Boot block not write protected 
.................... #FUSES NOWRTC                	//configuration not registers write protected 
.................... #FUSES NOCPD                 	//No EE protection 
.................... #FUSES NOCPB                 	//No Boot Block code protection 
.................... #FUSES NOEBTR                	//Memory not protected from table reads 
.................... #FUSES NOEBTRB               	//Boot block not protected from table reads 
....................  
.................... #use delay(clock=20000000) 
0004:  CLRF   FEA
0006:  MOVLW  07
0008:  MOVWF  FE9
000A:  MOVF   FEF,W
000C:  BZ    0028
000E:  MOVLW  06
0010:  MOVWF  01
0012:  CLRF   00
0014:  DECFSZ 00,F
0016:  BRA    0014
0018:  DECFSZ 01,F
001A:  BRA    0012
001C:  MOVLW  7B
001E:  MOVWF  00
0020:  DECFSZ 00,F
0022:  BRA    0020
0024:  DECFSZ FEF,F
0026:  BRA    000E
0028:  RETLW  00
.................... #use rs232(baud=9600,parity=N,xmit=PIN_C6,rcv=PIN_C7,bits=8) 
....................  
....................  
.................... #byte port_d   =  0x0f83 
.................... #byte port_b   =  0x0f81 
....................  
....................  
.................... void main() 
.................... { 
002A:  CLRF   FF8
002C:  BCF    FD0.7
002E:  CLRF   FEA
0030:  CLRF   FE9
0032:  MOVLW  81
0034:  MOVWF  FAF
0036:  MOVLW  A6
0038:  MOVWF  FAC
003A:  MOVLW  90
003C:  MOVWF  FAB
003E:  BSF    FC1.0
0040:  BSF    FC1.1
0042:  BSF    FC1.2
0044:  BCF    FC1.3
....................  
....................    setup_adc_ports(NO_ANALOGS); 
0046:  BSF    FC1.0
0048:  BSF    FC1.1
004A:  BSF    FC1.2
004C:  BCF    FC1.3
....................    setup_adc(ADC_OFF); 
004E:  BCF    FC2.0
....................    setup_psp(PSP_DISABLED); 
0050:  BCF    F96.4
....................    setup_spi(SPI_SS_DISABLED); 
0052:  BCF    FC6.5
0054:  BCF    F94.5
0056:  BSF    F94.4
0058:  BCF    F94.3
005A:  MOVLW  01
005C:  MOVWF  FC6
005E:  MOVLW  00
0060:  MOVWF  FC7
....................    setup_wdt(WDT_OFF); 
0062:  BCF    FD1.0
....................    setup_timer_0(RTCC_INTERNAL); 
0064:  MOVLW  80
0066:  MOVWF  FD5
....................    setup_timer_1(T1_DISABLED); 
0068:  CLRF   FCD
....................    setup_timer_2(T2_DISABLED,0,1); 
006A:  MOVLW  00
006C:  MOVWF  FCA
006E:  MOVLW  00
0070:  MOVWF  FCB
.................... set_tris_d(0x00); 
0072:  MOVWF  F95
.................... set_tris_b(0x00); 
0074:  MOVWF  F93
.................... port_d=0xff; 
0076:  MOVLW  FF
0078:  MOVWF  F83
.................... port_b=0xff; 
007A:  MOVWF  F81
....................  
.................... for(;;){ 
.................... delay_ms(15000); 
007C:  MOVLW  3C
007E:  MOVWF  06
0080:  MOVLW  FA
0082:  MOVWF  07
0084:  RCALL  0004
0086:  DECFSZ 06,F
0088:  BRA    0080
.................... port_b=0x00; 
008A:  CLRF   F81
.................... port_d=0xff; 
008C:  MOVLW  FF
008E:  MOVWF  F83
.................... delay_ms(1); 
0090:  MOVLW  01
0092:  MOVWF  07
0094:  RCALL  0004
.................... port_b=255; 
0096:  MOVLW  FF
0098:  MOVWF  F81
.................... port_d=0; 
009A:  CLRF   F83
....................  
.................... } 
009C:  BRA    007C
.................... } 
009E:  SLEEP 

Configuration Fuses:
   Word  1: 2200   HS NOOSCSEN
   Word  2: 0E0F   BROWNOUT WDT128 NOWDT BORV20 NOPUT
   Word  3: 0100   CCP2C1
   Word  4: 0081   STVREN NODEBUG NOLVP
   Word  5: C00F   NOPROTECT NOCPD NOCPB
   Word  6: E00F   NOWRT NOWRTD NOWRTB NOWRTC
   Word  7: 400F   NOEBTR NOEBTRB
